; Function Attrs: mustprogress uwtable
define void @_ZN3nix7getHomeB5cxx11Ev(ptr dead_on_unwind noalias writable sret(%"class.std::__cxx11::basic_string") align 8 %0) local_unnamed_addr #2 personality ptr @__gxx_personality_v0 {
  %2 = load atomic i8, ptr @_ZGVZN3nix7getHomeB5cxx11EvE7homeDirB5cxx11 acquire, align 8
  %3 = icmp eq i8 %2, 0
  br i1 %3, label %4, label %9, !prof !4

4:                                                ; preds = %1
  %5 = tail call i32 @__cxa_guard_acquire(ptr nonnull @_ZGVZN3nix7getHomeB5cxx11EvE7homeDirB5cxx11) #23
  %.not = icmp eq i32 %5, 0
  br i1 %.not, label %9, label %6

6:                                                ; preds = %4
  invoke fastcc void @"_ZZN3nix7getHomeB5cxx11EvENK3$_0clB5cxx11Ev"()
          to label %7 unwind label %10

7:                                                ; preds = %6
  %8 = tail call i32 @__cxa_atexit(ptr nonnull @_ZNSt7__cxx1112basic_stringIcSt11char_traitsIcESaIcEED2Ev, ptr nonnull @_ZZN3nix7getHomeB5cxx11EvE7homeDirB5cxx11, ptr nonnull @__dso_handle) #23
  tail call void @__cxa_guard_release(ptr nonnull @_ZGVZN3nix7getHomeB5cxx11EvE7homeDirB5cxx11) #23
  br label %9

9:                                                ; preds = %7, %4, %1
  tail call void @_ZNSt7__cxx1112basic_stringIcSt11char_traitsIcESaIcEEC2ERKS4_(ptr noundef nonnull align 8 dereferenceable(32) %0, ptr noundef nonnull align 8 dereferenceable(32) @_ZZN3nix7getHomeB5cxx11EvE7homeDirB5cxx11)
  ret void

10:                                               ; preds = %6
  %11 = landingpad { ptr, i32 }
          cleanup
  tail call void @__cxa_guard_abort(ptr nonnull @_ZGVZN3nix7getHomeB5cxx11EvE7homeDirB5cxx11) #23
  resume { ptr, i32 } %11
}